LIBRARY "Clientdll.dll"
EXPORTS
??0CBasicClient@@QAE@XZ
??0CClientTest@@QAE@XZ
??1CBasicClient@@QAE@XZ
??1CClientTest@@QAE@XZ
??4CBasicClient@@QAEAAV0@ABV0@@Z
??4CClientTest@@QAEAAV0@ABV0@@Z
?disConn@CBasicClient@@QAEXXZ
?endRecv@CClientTest@@QAEXXZ
?getAge@CClientTest@@QAEHXZ
?getID@CClientTest@@QAEIXZ
?getName@CClientTest@@QAEPADXZ
?getUserData@CClientTest@@QAEXXZ
?getUserDetail@CClientTest@@QAEXPADAAI@Z
?getUserList@CClientTest@@QAEXXZ
?init@CBasicClient@@QAEHPADG@Z
?isConn@CBasicClient@@QAE_NXZ
?isConnect@CBasicClient@@QAE_NXZ
?isLogin@CClientTest@@QAE_NXZ
?login@CClientTest@@QAEXPAD0@Z
?logoff@CClientTest@@QAEXXZ
?lostServer@CClientTest@@QAEXXZ
?pauseThread@CClientTest@@QAEXXZ
?print@CClientTest@@QAEXXZ
?recvMess@CBasicClient@@IAEHPAXH@Z
?recvMess@CClientTest@@QAEHAAUMessage@@@Z
?recvWrongMess@CClientTest@@QAEXXZ
?resumeThread@CClientTest@@QAEXXZ
?sendMess@CBasicClient@@IAEHPAXH@Z
?sendMess@CClientTest@@QAEHAAUMessage@@@Z
?sendStr@CClientTest@@QAEXPADI@Z
?start@CClientTest@@QAEHXZ
?startRecv@CClientTest@@QAEXXZ
?threadFun@CClientTest@@SGKPAX@Z
?updateUserData@CClientTest@@QAEXXZ
